Certificate:
    Data:
        Version: 3 (0x2)
        Serial Number: 268435672 (0x100000d8)
        Signature Algorithm: sha256WithRSAEncryption
        Issuer: C=DE, ST=Hessen, O=privacyidea, CN=CA001
        Validity
            Not Before: Mar  3 14:57:02 2021 GMT
            Not After : Mar  3 14:57:02 2022 GMT
        Subject: OU=realm1, CN=cornelius/emailAddress=user@localhost.localdomain
        Subject Public Key Info:
            Public Key Algorithm: rsaEncryption
                RSA Public-Key: (2048 bit)
                Modulus:
                    00:ce:c0:e8:20:8a:57:ec:05:b2:50:28:d1:06:b6:
                    97:d3:8c:38:7b:1b:b8:96:02:5a:97:2e:60:a7:ac:
                    d0:f5:45:18:68:a5:6d:72:66:86:22:5e:dd:68:ee:
                    f9:cf:de:66:e8:5d:cd:8e:cf:6e:54:3b:e9:94:4e:
                    d2:bc:01:45:5d:7b:78:2a:26:b5:95:7d:66:1a:be:
                    a2:fb:5b:64:d0:d7:8a:cd:1b:a3:91:e3:8f:ee:5a:
                    05:09:64:3a:d6:5e:d3:e5:1e:36:35:fa:c0:cd:06:
                    fd:55:68:ad:10:c9:03:81:fc:d4:36:5e:dd:72:7e:
                    de:9e:65:0b:c1:d5:8a:14:77:1b:f4:02:aa:05:3f:
                    a3:be:44:89:63:8a:d3:4d:49:09:cc:b1:82:ac:78:
                    70:ab:d3:96:a3:25:4e:d8:ad:58:f6:c3:5d:04:9f:
                    1e:6e:ce:3c:d4:e7:cc:8c:bd:f1:5e:19:0d:52:96:
                    57:11:57:26:cf:c8:95:76:93:5c:23:a4:e4:1c:40:
                    5e:6a:11:58:b6:65:6d:9a:12:6e:aa:3f:77:a4:f2:
                    67:fb:d9:14:1b:22:fc:a5:d6:c3:6f:4e:dd:bb:43:
                    32:69:67:40:ae:b5:09:b1:70:f4:e1:df:c5:54:e1:
                    d5:68:a7:3a:c6:da:c9:96:a4:02:fe:77:47:b7:f8:
                    20:2b
                Exponent: 65537 (0x10001)
        X509v3 extensions:
            X509v3 Key Usage: 
                Digital Signature, Key Encipherment
            X509v3 Basic Constraints: 
                CA:FALSE
            Netscape Cert Type: 
                SSL Server
            Netscape Comment: 
                OpenSSL Generated Server Certificate
            X509v3 Subject Key Identifier: 
                4F:BD:F1:04:D8:4F:E2:93:B9:CC:6B:DA:D4:D2:2B:F3:C7:EB:90:7A
            X509v3 Authority Key Identifier: 
                keyid:F4:A7:C0:CC:91:46:AF:64:F3:91:F2:27:F8:C8:B2:6F:8A:87:32:73
                DirName:/C=DE/ST=Hessen/O=privacyidea/CN=CA001
                serial:FB:C8:EB:AC:83:CD:12:07

            X509v3 Extended Key Usage: 
                TLS Web Server Authentication
    Signature Algorithm: sha256WithRSAEncryption
         10:1e:9c:ca:bc:8e:b2:d6:1a:a5:6e:9a:dc:3f:21:df:0a:5f:
         10:d5:d3:b2:a9:ee:4d:38:05:1c:91:ec:f9:9d:a7:7c:b4:a9:
         1f:11:30:17:e1:e2:39:87:9d:fd:c0:1a:bd:ad:3c:fb:b9:6e:
         bc:f5:43:c6:99:3b:51:13:be:f6:d0:54:1f:3e:21:e9:83:59:
         44:eb:04:19:13:b4:b4:5c:b3:f0:67:1c:28:d6:05:7b:0a:bd:
         da:e8:5c:79:58:b4:86:9b:ad:0c:50:9e:8a:b2:97:c7:ab:90:
         0e:56:e2:3f:8f:16:1f:ff:bc:c5:55:e9:90:93:b3:d4:65:47:
         8a:26:a3:03:d2:31:62:2b:21:cf:04:ad:a3:aa:fb:7b:92:c4:
         ae:8f:57:70:f0:9d:f9:7c:35:ea:af:b5:be:22:7f:46:c0:15:
         f4:3c:6c:74:dd:1c:b7:d4:57:54:45:50:dc:67:01:09:62:b9:
         c9:cc:c0:dd:4c:bd:77:f7:4f:e4:12:e4:7e:61:bc:ef:52:e3:
         73:66:48:42:f8:11:6c:18:6d:52:d6:90:6d:7a:45:4e:ad:1b:
         ea:50:cb:a0:fd:d4:b3:0f:86:bf:c7:ce:47:8a:f8:cf:71:e9:
         66:63:87:e6:b4:44:8f:2c:4d:46:d7:7b:23:80:21:8a:36:d0:
         97:b0:f3:84
-----BEGIN CERTIFICATE-----
MIIEIjCCAwqgAwIBAgIEEAAA2DANBgkqhkiG9w0BAQsFADBEMQswCQYDVQQGEwJE
RTEPMA0GA1UECAwGSGVzc2VuMRQwEgYDVQQKDAtwcml2YWN5aWRlYTEOMAwGA1UE
AwwFQ0EwMDEwHhcNMjEwMzAzMTQ1NzAyWhcNMjIwMzAzMTQ1NzAyWjBQMQ8wDQYD
VQQLDAZyZWFsbTExEjAQBgNVBAMMCWNvcm5lbGl1czEpMCcGCSqGSIb3DQEJARYa
dXNlckBsb2NhbGhvc3QubG9jYWxkb21haW4wggEiMA0GCSqGSIb3DQEBAQUAA4IB
DwAwggEKAoIBAQDOwOggilfsBbJQKNEGtpfTjDh7G7iWAlqXLmCnrND1RRhopW1y
ZoYiXt1o7vnP3mboXc2Oz25UO+mUTtK8AUVde3gqJrWVfWYavqL7W2TQ14rNG6OR
44/uWgUJZDrWXtPlHjY1+sDNBv1VaK0QyQOB/NQ2Xt1yft6eZQvB1YoUdxv0AqoF
P6O+RIljitNNSQnMsYKseHCr05ajJU7YrVj2w10Enx5uzjzU58yMvfFeGQ1SllcR
VybPyJV2k1wjpOQcQF5qEVi2ZW2aEm6qP3ek8mf72RQbIvyl1sNvTt27QzJpZ0Cu
tQmxcPTh38VU4dVopzrG2smWpAL+d0e3+CArAgMBAAGjggEOMIIBCjALBgNVHQ8E
BAMCBaAwCQYDVR0TBAIwADARBglghkgBhvhCAQEEBAMCBkAwMwYJYIZIAYb4QgEN
BCYWJE9wZW5TU0wgR2VuZXJhdGVkIFNlcnZlciBDZXJ0aWZpY2F0ZTAdBgNVHQ4E
FgQUT73xBNhP4pO5zGva1NIr88frkHowdAYDVR0jBG0wa4AU9KfAzJFGr2TzkfIn
+Miyb4qHMnOhSKRGMEQxCzAJBgNVBAYTAkRFMQ8wDQYDVQQIDAZIZXNzZW4xFDAS
BgNVBAoMC3ByaXZhY3lpZGVhMQ4wDAYDVQQDDAVDQTAwMYIJAPvI66yDzRIHMBMG
A1UdJQQMMAoGCCsGAQUFBwMBMA0GCSqGSIb3DQEBCwUAA4IBAQAQHpzKvI6y1hql
bprcPyHfCl8Q1dOyqe5NOAUckez5nad8tKkfETAX4eI5h539wBq9rTz7uW689UPG
mTtRE7720FQfPiHpg1lE6wQZE7S0XLPwZxwo1gV7Cr3a6Fx5WLSGm60MUJ6KspfH
q5AOVuI/jxYf/7zFVemQk7PUZUeKJqMD0jFiKyHPBK2jqvt7ksSuj1dw8J35fDXq
r7W+In9GwBX0PGx03Ry31FdURVDcZwEJYrnJzMDdTL1390/kEuR+YbzvUuNzZkhC
+BFsGG1S1pBtekVOrRvqUMug/dSzD4a/x85HivjPcelmY4fmtESPLE1G13sjgCGK
NtCXsPOE
-----END CERTIFICATE-----
