Certificate:
    Data:
        Version: 3 (0x2)
        Serial Number: 268435673 (0x100000d9)
        Signature Algorithm: sha256WithRSAEncryption
        Issuer: C=DE, ST=Hessen, O=privacyidea, CN=CA001
        Validity
            Not Before: Mar  3 14:58:58 2021 GMT
            Not After : Mar  3 14:58:58 2022 GMT
        Subject: CN=selfservice,CN=user,O=realm1/emailAddress=meine
        Subject Public Key Info:
            Public Key Algorithm: rsaEncryption
                RSA Public-Key: (2048 bit)
                Modulus:
                    00:cf:3c:d4:33:0e:12:c4:e6:da:cd:b6:56:a1:1c:
                    26:bb:26:1c:8a:4a:73:a8:58:8a:b6:1e:b3:8b:99:
                    d2:1d:07:c2:92:89:79:c0:69:d8:c8:df:28:61:98:
                    1e:b3:fe:ae:2b:bd:78:a9:f7:6e:47:dc:a3:a0:16:
                    8c:85:02:c1:4e:92:fd:72:6e:f0:c8:03:29:9b:b8:
                    00:6e:c0:83:95:c8:34:20:36:9c:b3:e5:e4:e6:76:
                    73:a3:1a:ad:40:96:e0:53:54:00:ec:76:79:9a:c6:
                    0d:7e:b6:bd:29:ec:83:f3:cb:89:a4:cb:6c:00:ba:
                    0c:c5:78:0f:ff:69:b8:94:f4:04:70:43:3f:d8:9e:
                    d7:a7:fb:5d:ce:75:8e:da:e7:c4:07:b1:9d:de:6f:
                    88:4b:b6:4d:9a:cf:f9:bc:fa:9f:cd:32:6d:f6:3a:
                    0b:0d:23:42:78:ec:97:42:bf:0e:4d:60:56:e1:d3:
                    02:f2:19:cb:84:57:90:e5:70:a1:a2:83:35:86:e2:
                    da:86:9f:f9:8a:c4:79:b3:52:28:da:cb:bb:34:ca:
                    d3:da:91:4a:cf:8d:76:a2:b2:6b:9b:f9:96:fd:09:
                    2a:da:11:23:4d:f0:cb:d6:b2:b1:0e:12:6c:9a:19:
                    65:98:87:ca:e4:ee:24:ce:44:ac:90:8f:9d:1b:c5:
                    2a:9d
                Exponent: 65537 (0x10001)
        X509v3 extensions:
            X509v3 Key Usage: 
                Digital Signature, Key Encipherment
            X509v3 Basic Constraints: 
                CA:FALSE
            Netscape Cert Type: 
                SSL Server
            Netscape Comment: 
                OpenSSL Generated Server Certificate
            X509v3 Subject Key Identifier: 
                4D:07:90:AD:FF:1D:0D:E7:1A:DD:D6:2E:FA:BA:34:CB:AA:1F:24:C6
            X509v3 Authority Key Identifier: 
                keyid:F4:A7:C0:CC:91:46:AF:64:F3:91:F2:27:F8:C8:B2:6F:8A:87:32:73
                DirName:/C=DE/ST=Hessen/O=privacyidea/CN=CA001
                serial:FB:C8:EB:AC:83:CD:12:07

            X509v3 Extended Key Usage: 
                TLS Web Server Authentication
    Signature Algorithm: sha256WithRSAEncryption
         41:f4:b2:ee:71:3d:2d:1e:2a:80:fb:72:41:37:00:23:35:53:
         9a:43:e9:f8:40:20:f0:ff:33:c3:14:8c:35:b8:51:92:f3:3d:
         9f:f9:de:18:d8:a3:80:dd:7c:9a:40:92:0e:94:9f:81:3b:8f:
         f8:a3:ce:0f:a1:61:2b:3b:b5:3d:8b:57:1f:83:b1:56:cf:2e:
         36:04:cd:1a:24:f2:8a:16:24:95:3d:3c:46:f9:39:de:11:e6:
         fb:67:49:83:20:c5:4f:24:c9:3e:b6:79:8c:f2:68:cc:32:7e:
         20:7b:7c:19:e4:7a:f3:77:d6:3f:21:20:52:71:f5:65:d9:ec:
         74:a3:a9:c6:66:e6:69:25:5f:03:e5:12:5d:0a:72:5b:55:ed:
         4c:d9:03:5e:73:1b:03:c8:c3:64:a9:73:bf:04:bc:b6:79:f3:
         89:f9:16:1b:61:f7:d6:cf:f4:9d:c9:24:fd:55:3a:32:fa:bc:
         f5:e6:a4:34:f7:69:dd:4d:4c:72:85:13:17:4b:12:86:85:f7:
         e4:6e:10:80:c1:86:cb:9d:c2:cd:72:20:46:62:a9:4d:a2:95:
         55:1b:4b:1d:b3:0b:f7:24:1c:ca:a7:ee:f6:36:39:de:98:64:
         39:8f:7c:08:23:66:2e:68:a9:ac:f8:9b:d6:84:2e:1d:00:0b:
         2e:60:d4:fc
-----BEGIN CERTIFICATE-----
MIIEDzCCAvegAwIBAgIEEAAA2TANBgkqhkiG9w0BAQsFADBEMQswCQYDVQQGEwJE
RTEPMA0GA1UECAwGSGVzc2VuMRQwEgYDVQQKDAtwcml2YWN5aWRlYTEOMAwGA1UE
AwwFQ0EwMDEwHhcNMjEwMzAzMTQ1ODU4WhcNMjIwMzAzMTQ1ODU4WjA9MSUwIwYD
VQQDDBxzZWxmc2VydmljZSxDTj11c2VyLE89cmVhbG0xMRQwEgYJKoZIhvcNAQkB
FgVtZWluZTCCASIwDQYJKoZIhvcNAQEBBQADggEPADCCAQoCggEBAM881DMOEsTm
2s22VqEcJrsmHIpKc6hYirYes4uZ0h0HwpKJecBp2MjfKGGYHrP+riu9eKn3bkfc
o6AWjIUCwU6S/XJu8MgDKZu4AG7Ag5XINCA2nLPl5OZ2c6MarUCW4FNUAOx2eZrG
DX62vSnsg/PLiaTLbAC6DMV4D/9puJT0BHBDP9ie16f7Xc51jtrnxAexnd5viEu2
TZrP+bz6n80ybfY6Cw0jQnjsl0K/Dk1gVuHTAvIZy4RXkOVwoaKDNYbi2oaf+YrE
ebNSKNrLuzTK09qRSs+NdqKya5v5lv0JKtoRI03wy9aysQ4SbJoZZZiHyuTuJM5E
rJCPnRvFKp0CAwEAAaOCAQ4wggEKMAsGA1UdDwQEAwIFoDAJBgNVHRMEAjAAMBEG
CWCGSAGG+EIBAQQEAwIGQDAzBglghkgBhvhCAQ0EJhYkT3BlblNTTCBHZW5lcmF0
ZWQgU2VydmVyIENlcnRpZmljYXRlMB0GA1UdDgQWBBRNB5Ct/x0N5xrd1i76ujTL
qh8kxjB0BgNVHSMEbTBrgBT0p8DMkUavZPOR8if4yLJviocyc6FIpEYwRDELMAkG
A1UEBhMCREUxDzANBgNVBAgMBkhlc3NlbjEUMBIGA1UECgwLcHJpdmFjeWlkZWEx
DjAMBgNVBAMMBUNBMDAxggkA+8jrrIPNEgcwEwYDVR0lBAwwCgYIKwYBBQUHAwEw
DQYJKoZIhvcNAQELBQADggEBAEH0su5xPS0eKoD7ckE3ACM1U5pD6fhAIPD/M8MU
jDW4UZLzPZ/53hjYo4DdfJpAkg6Un4E7j/ijzg+hYSs7tT2LVx+DsVbPLjYEzRok
8ooWJJU9PEb5Od4R5vtnSYMgxU8kyT62eYzyaMwyfiB7fBnkevN31j8hIFJx9WXZ
7HSjqcZm5mklXwPlEl0KcltV7UzZA15zGwPIw2Spc78EvLZ584n5Fhth99bP9J3J
JP1VOjL6vPXmpDT3ad1NTHKFExdLEoaF9+RuEIDBhsudws1yIEZiqU2ilVUbSx2z
C/ckHMqn7vY2Od6YZDmPfAgjZi5oqaz4m9aELh0ACy5g1Pw=
-----END CERTIFICATE-----
