Certificate:
    Data:
        Version: 3 (0x2)
        Serial Number: 268435671 (0x100000d7)
        Signature Algorithm: sha256WithRSAEncryption
        Issuer: C=DE, ST=Hessen, O=privacyidea, CN=CA001
        Validity
            Not Before: Mar  3 14:57:02 2021 GMT
            Not After : Mar  3 14:57:02 2022 GMT
        Subject: CN=cn=cornelius
        Subject Public Key Info:
            Public Key Algorithm: rsaEncryption
                RSA Public-Key: (2048 bit)
                Modulus:
                    00:ce:a4:39:30:25:73:e4:9d:e6:37:3b:85:59:83:
                    ef:a3:6e:f9:83:b9:f7:48:b0:0b:d5:e8:05:40:61:
                    cd:c5:5a:bc:11:2f:5b:4e:d0:4f:b8:d0:e8:7f:05:
                    ab:ad:24:0b:90:d4:3f:60:ec:15:b6:4e:be:8e:d9:
                    26:ab:f2:2f:7f:35:c2:a6:a1:bc:52:3a:d9:88:fb:
                    b3:fa:71:20:b9:51:0e:f8:af:0d:16:be:bd:5d:b9:
                    ab:30:d5:ac:6b:3c:bc:ee:28:4a:4f:6f:d4:09:15:
                    f7:98:af:77:db:36:15:2e:1e:ee:0f:d0:d9:60:ad:
                    db:b9:c4:3f:c6:25:32:f9:e3:e9:50:b8:ec:84:a0:
                    c4:d2:9c:fd:ce:25:80:85:7e:3a:ad:4c:a7:40:1b:
                    0a:58:18:9f:c2:5e:36:e1:d1:44:e9:46:b6:dc:b4:
                    28:a2:ec:ed:02:f7:25:79:e1:86:8e:69:67:52:ee:
                    82:21:b7:84:2d:cc:e7:a8:39:57:7d:a3:1e:e9:50:
                    63:77:29:ab:e4:a5:ff:dc:ee:4c:4b:5e:08:2b:62:
                    08:2d:75:b8:26:6c:93:eb:f5:45:ea:cd:83:58:53:
                    15:46:e6:6b:43:c1:2f:d9:88:4b:3d:d5:fd:0c:ff:
                    51:52:ed:54:fb:27:2d:59:ef:4c:50:ce:71:cd:eb:
                    5a:99
                Exponent: 65537 (0x10001)
        X509v3 extensions:
            X509v3 Key Usage: 
                Digital Signature, Key Encipherment
            X509v3 Basic Constraints: 
                CA:FALSE
            Netscape Cert Type: 
                SSL Server
            Netscape Comment: 
                OpenSSL Generated Server Certificate
            X509v3 Subject Key Identifier: 
                0E:D5:BA:4E:7D:92:57:15:FD:61:4E:34:5B:E9:62:D0:20:1C:7D:08
            X509v3 Authority Key Identifier: 
                keyid:F4:A7:C0:CC:91:46:AF:64:F3:91:F2:27:F8:C8:B2:6F:8A:87:32:73
                DirName:/C=DE/ST=Hessen/O=privacyidea/CN=CA001
                serial:FB:C8:EB:AC:83:CD:12:07

            X509v3 Extended Key Usage: 
                TLS Web Server Authentication
    Signature Algorithm: sha256WithRSAEncryption
         25:86:cf:d5:ea:4f:7b:9a:df:9d:af:da:b9:fc:b0:20:ac:7c:
         53:d1:46:8e:f8:e4:69:a3:a8:9a:e0:35:1c:11:5e:bb:52:94:
         7f:12:a1:6b:e1:37:b5:fe:a4:15:eb:70:ff:0a:2b:08:ae:3e:
         03:d8:40:b8:e4:2c:47:6e:dc:08:f4:1d:c7:5a:4d:8a:b0:2d:
         f8:16:d8:35:14:d5:31:ba:fa:f2:c0:34:71:0e:ab:da:c0:f6:
         3d:4e:ea:b9:9f:74:bb:07:bd:29:6f:12:48:7b:88:79:8d:72:
         e8:5d:79:4c:16:70:d2:87:ff:68:f7:d4:9e:c7:03:59:e9:b4:
         fa:5a:e0:77:73:96:20:4b:a9:99:11:a8:61:b0:79:68:9e:61:
         45:bb:7a:1e:35:cf:3c:16:72:a9:bb:2b:45:a7:2e:52:ad:ce:
         4e:c2:00:46:57:78:02:5e:d6:26:3f:8b:67:d7:8f:cc:c0:94:
         dc:30:2f:eb:d2:4f:fd:eb:29:7a:97:be:ad:0a:9e:7b:23:0f:
         27:72:4c:66:34:2e:da:7b:f4:b7:ff:92:82:b6:3b:dc:bb:3a:
         0c:27:02:a4:28:f3:72:ef:83:fc:7d:f7:a1:a2:96:87:b0:62:
         45:66:53:eb:fc:32:08:45:3a:27:f8:21:49:46:99:31:40:70:
         9e:0b:b3:34
-----BEGIN CERTIFICATE-----
MIID6TCCAtGgAwIBAgIEEAAA1zANBgkqhkiG9w0BAQsFADBEMQswCQYDVQQGEwJE
RTEPMA0GA1UECAwGSGVzc2VuMRQwEgYDVQQKDAtwcml2YWN5aWRlYTEOMAwGA1UE
AwwFQ0EwMDEwHhcNMjEwMzAzMTQ1NzAyWhcNMjIwMzAzMTQ1NzAyWjAXMRUwEwYD
VQQDDAxjbj1jb3JuZWxpdXMwggEiMA0GCSqGSIb3DQEBAQUAA4IBDwAwggEKAoIB
AQDOpDkwJXPkneY3O4VZg++jbvmDufdIsAvV6AVAYc3FWrwRL1tO0E+40Oh/Baut
JAuQ1D9g7BW2Tr6O2Sar8i9/NcKmobxSOtmI+7P6cSC5UQ74rw0Wvr1duasw1axr
PLzuKEpPb9QJFfeYr3fbNhUuHu4P0Nlgrdu5xD/GJTL54+lQuOyEoMTSnP3OJYCF
fjqtTKdAGwpYGJ/CXjbh0UTpRrbctCii7O0C9yV54YaOaWdS7oIht4QtzOeoOVd9
ox7pUGN3Kavkpf/c7kxLXggrYggtdbgmbJPr9UXqzYNYUxVG5mtDwS/ZiEs91f0M
/1FS7VT7Jy1Z70xQznHN61qZAgMBAAGjggEOMIIBCjALBgNVHQ8EBAMCBaAwCQYD
VR0TBAIwADARBglghkgBhvhCAQEEBAMCBkAwMwYJYIZIAYb4QgENBCYWJE9wZW5T
U0wgR2VuZXJhdGVkIFNlcnZlciBDZXJ0aWZpY2F0ZTAdBgNVHQ4EFgQUDtW6Tn2S
VxX9YU40W+li0CAcfQgwdAYDVR0jBG0wa4AU9KfAzJFGr2TzkfIn+Miyb4qHMnOh
SKRGMEQxCzAJBgNVBAYTAkRFMQ8wDQYDVQQIDAZIZXNzZW4xFDASBgNVBAoMC3By
aXZhY3lpZGVhMQ4wDAYDVQQDDAVDQTAwMYIJAPvI66yDzRIHMBMGA1UdJQQMMAoG
CCsGAQUFBwMBMA0GCSqGSIb3DQEBCwUAA4IBAQAlhs/V6k97mt+dr9q5/LAgrHxT
0UaO+ORpo6ia4DUcEV67UpR/EqFr4Te1/qQV63D/CisIrj4D2EC45CxHbtwI9B3H
Wk2KsC34Ftg1FNUxuvrywDRxDqvawPY9Tuq5n3S7B70pbxJIe4h5jXLoXXlMFnDS
h/9o99SexwNZ6bT6WuB3c5YgS6mZEahhsHlonmFFu3oeNc88FnKpuytFpy5Src5O
wgBGV3gCXtYmP4tn14/MwJTcMC/r0k/96yl6l76tCp57Iw8nckxmNC7ae/S3/5KC
tjvcuzoMJwKkKPNy74P8ffehopaHsGJFZlPr/DIIRTon+CFJRpkxQHCeC7M0
-----END CERTIFICATE-----
