Certificate:
    Data:
        Version: 3 (0x2)
        Serial Number: 268435670 (0x100000d6)
        Signature Algorithm: sha256WithRSAEncryption
        Issuer: C=DE, ST=Hessen, O=privacyidea, CN=CA001
        Validity
            Not Before: Mar  3 14:57:02 2021 GMT
            Not After : Mar  3 14:57:02 2022 GMT
        Subject: C=DE, ST=Hessen, O=privacyidea, CN=requester.localdomain
        Subject Public Key Info:
            Public Key Algorithm: rsaEncryption
                RSA Public-Key: (2048 bit)
                Modulus:
                    00:cd:be:14:4f:fa:ce:01:3f:42:22:1b:1d:9c:af:
                    dd:92:d2:7f:db:6c:b7:3e:39:43:43:6b:13:03:f1:
                    05:f4:07:74:bc:76:69:28:0b:af:19:8e:d7:fc:e3:
                    cd:c6:58:f2:ca:7f:08:6d:53:fc:07:02:44:24:c6:
                    b4:34:4c:8c:04:fe:33:0e:40:e2:20:ba:02:73:5a:
                    f7:f5:4f:63:6e:cc:c6:b6:df:54:1d:37:39:7d:51:
                    36:26:5f:bd:dc:3f:a8:8b:6b:a2:ae:b6:9d:d6:21:
                    e7:df:41:b8:7a:28:2a:68:48:ca:a8:2d:ed:e1:e9:
                    46:5e:5a:72:6d:b4:84:38:87:91:fd:94:11:0b:28:
                    84:c6:c2:2f:2a:fb:01:f9:36:7a:09:75:d1:33:88:
                    3c:73:41:5b:c8:bf:94:89:70:a1:f0:c0:b9:2e:50:
                    53:1e:b1:17:64:69:f4:2d:81:e0:a9:0d:0e:32:e9:
                    ba:55:8a:85:f1:1b:6f:49:79:b4:7f:88:c3:0d:3e:
                    54:88:9b:3d:1f:38:8c:04:f3:ee:6a:63:2b:f5:c6:
                    db:b4:83:aa:c4:78:41:3a:7d:4b:e1:c8:3e:71:ca:
                    1b:61:59:ea:c6:c4:ca:32:5e:c9:e9:bf:12:29:e6:
                    c6:c3:63:fe:a0:55:da:7a:f1:60:98:4d:26:ed:fa:
                    70:2d
                Exponent: 65537 (0x10001)
        X509v3 extensions:
            X509v3 Key Usage: 
                Digital Signature, Key Encipherment
            X509v3 Basic Constraints: 
                CA:FALSE
            Netscape Cert Type: 
                SSL Server
            Netscape Comment: 
                OpenSSL Generated Server Certificate
            X509v3 Subject Key Identifier: 
                53:3F:ED:5D:09:07:B3:65:7B:AB:45:C9:24:5B:09:77:80:0A:96:ED
            X509v3 Authority Key Identifier: 
                keyid:F4:A7:C0:CC:91:46:AF:64:F3:91:F2:27:F8:C8:B2:6F:8A:87:32:73
                DirName:/C=DE/ST=Hessen/O=privacyidea/CN=CA001
                serial:FB:C8:EB:AC:83:CD:12:07

            X509v3 Extended Key Usage: 
                TLS Web Server Authentication
    Signature Algorithm: sha256WithRSAEncryption
         61:60:ee:df:c1:16:a2:e0:3c:bb:2e:fc:2d:33:c3:08:b3:83:
         0f:7f:b4:3d:42:c5:33:07:4f:9b:dc:af:1c:11:c5:28:67:43:
         ed:2f:24:60:62:c8:94:bd:27:7f:52:0b:08:73:14:39:ee:64:
         fd:f9:31:0d:3b:20:f9:3a:b0:b0:f9:8a:65:80:72:04:58:c7:
         44:a2:84:e3:34:40:64:f4:6f:4e:7d:3d:50:d7:87:b8:a5:d2:
         88:9c:e3:1d:d5:ac:05:e5:30:98:a4:43:17:54:53:bc:3b:80:
         bb:8b:a7:56:86:c3:6d:95:90:f2:63:e1:f5:0c:81:fd:b6:73:
         c1:8f:9d:0c:ea:b9:fa:8a:96:99:f6:5b:97:34:35:5b:58:29:
         7e:c8:57:e2:00:2f:aa:e0:c3:31:fb:80:2e:42:ac:10:bb:4c:
         a0:3a:43:9a:4d:b9:c9:c4:72:e2:b3:f8:30:41:dc:f1:17:7a:
         80:f6:49:bc:77:d9:fa:48:da:19:9e:7f:ed:6a:55:05:0e:f6:
         10:75:8b:63:e7:e2:7d:7a:d4:b8:80:b4:d7:bf:0f:ee:40:56:
         cc:34:c5:03:25:9c:4b:ce:b5:e1:92:2f:77:46:00:66:20:29:
         e3:f0:a1:2a:7b:91:30:30:7a:3b:58:55:76:a5:a9:56:01:dc:
         5d:f6:bb:cb
-----BEGIN CERTIFICATE-----
MIIEJjCCAw6gAwIBAgIEEAAA1jANBgkqhkiG9w0BAQsFADBEMQswCQYDVQQGEwJE
RTEPMA0GA1UECAwGSGVzc2VuMRQwEgYDVQQKDAtwcml2YWN5aWRlYTEOMAwGA1UE
AwwFQ0EwMDEwHhcNMjEwMzAzMTQ1NzAyWhcNMjIwMzAzMTQ1NzAyWjBUMQswCQYD
VQQGEwJERTEPMA0GA1UECAwGSGVzc2VuMRQwEgYDVQQKDAtwcml2YWN5aWRlYTEe
MBwGA1UEAwwVcmVxdWVzdGVyLmxvY2FsZG9tYWluMIIBIjANBgkqhkiG9w0BAQEF
AAOCAQ8AMIIBCgKCAQEAzb4UT/rOAT9CIhsdnK/dktJ/22y3PjlDQ2sTA/EF9Ad0
vHZpKAuvGY7X/OPNxljyyn8IbVP8BwJEJMa0NEyMBP4zDkDiILoCc1r39U9jbszG
tt9UHTc5fVE2Jl+93D+oi2uirrad1iHn30G4eigqaEjKqC3t4elGXlpybbSEOIeR
/ZQRCyiExsIvKvsB+TZ6CXXRM4g8c0FbyL+UiXCh8MC5LlBTHrEXZGn0LYHgqQ0O
Mum6VYqF8RtvSXm0f4jDDT5UiJs9HziMBPPuamMr9cbbtIOqxHhBOn1L4cg+ccob
YVnqxsTKMl7J6b8SKebGw2P+oFXaevFgmE0m7fpwLQIDAQABo4IBDjCCAQowCwYD
VR0PBAQDAgWgMAkGA1UdEwQCMAAwEQYJYIZIAYb4QgEBBAQDAgZAMDMGCWCGSAGG
+EIBDQQmFiRPcGVuU1NMIEdlbmVyYXRlZCBTZXJ2ZXIgQ2VydGlmaWNhdGUwHQYD
VR0OBBYEFFM/7V0JB7Nle6tFySRbCXeACpbtMHQGA1UdIwRtMGuAFPSnwMyRRq9k
85HyJ/jIsm+KhzJzoUikRjBEMQswCQYDVQQGEwJERTEPMA0GA1UECAwGSGVzc2Vu
MRQwEgYDVQQKDAtwcml2YWN5aWRlYTEOMAwGA1UEAwwFQ0EwMDGCCQD7yOusg80S
BzATBgNVHSUEDDAKBggrBgEFBQcDATANBgkqhkiG9w0BAQsFAAOCAQEAYWDu38EW
ouA8uy78LTPDCLODD3+0PULFMwdPm9yvHBHFKGdD7S8kYGLIlL0nf1ILCHMUOe5k
/fkxDTsg+TqwsPmKZYByBFjHRKKE4zRAZPRvTn09UNeHuKXSiJzjHdWsBeUwmKRD
F1RTvDuAu4unVobDbZWQ8mPh9QyB/bZzwY+dDOq5+oqWmfZblzQ1W1gpfshX4gAv
quDDMfuALkKsELtMoDpDmk25ycRy4rP4MEHc8Rd6gPZJvHfZ+kjaGZ5/7WpVBQ72
EHWLY+fifXrUuIC0178P7kBWzDTFAyWcS8614ZIvd0YAZiAp4/ChKnuRMDB6O1hV
dqWpVgHcXfa7yw==
-----END CERTIFICATE-----
